target datalayout = "e-m:e-p270:32:32-p271:32:32-p272:64:64-i64:64-i128:128-f80:128-n8:16:32:64-S128"
target triple = "x86_64-pc-linux-gnu"

%"class.base::time_internal::TimeBase" = type { i64 }

@_ZN4base4Time26kTimeTToMicrosecondsOffsetE = external constant i64, align 8

; Function Attrs: mustprogress nounwind uwtable
define linkonce_odr noundef i64 @_ZNSt14numeric_limitsIlE3maxEv() #1 comdat align 2 {
  ret i64 9223372036854775807
}

; Function Attrs: mustprogress nounwind uwtable
define linkonce_odr noundef zeroext i1 @_ZNK4base13time_internal8TimeBaseINS_4TimeEE6is_maxEv(ptr noundef nonnull align 8 dereferenceable(8) %0) #1 comdat align 2 {
  %2 = alloca ptr, align 8
  store ptr %0, ptr %2, align 8, !tbaa !26
  %3 = load ptr, ptr %2, align 8
  %4 = getelementptr inbounds nuw %"class.base::time_internal::TimeBase", ptr %3, i32 0, i32 0
  %5 = load i64, ptr %4, align 8, !tbaa !29
  %6 = call noundef i64 @_ZNSt14numeric_limitsIlE3maxEv() #12
  %7 = icmp eq i64 %5, %6
  ret i1 %7
}

; Function Attrs: mustprogress nounwind uwtable
define linkonce_odr noundef zeroext i1 @_ZNK4base13time_internal8TimeBaseINS_4TimeEE7is_nullEv(ptr noundef nonnull align 8 dereferenceable(8) %0) #1 comdat align 2 {
  %2 = alloca ptr, align 8
  store ptr %0, ptr %2, align 8, !tbaa !26
  %3 = load ptr, ptr %2, align 8
  %4 = getelementptr inbounds nuw %"class.base::time_internal::TimeBase", ptr %3, i32 0, i32 0
  %5 = load i64, ptr %4, align 8, !tbaa !29
  %6 = icmp eq i64 %5, 0
  ret i1 %6
}

; Function Attrs: mustprogress uwtable
define noundef i64 @_ZNK4base4Time7ToTimeTEv(ptr noundef nonnull align 8 dereferenceable(8) %0) #0 align 2 {
  %2 = alloca i64, align 8
  %3 = alloca ptr, align 8
  store ptr %0, ptr %3, align 8, !tbaa !24
  %4 = load ptr, ptr %3, align 8
  %5 = call noundef zeroext i1 @_ZNK4base13time_internal8TimeBaseINS_4TimeEE7is_nullEv(ptr noundef nonnull align 8 dereferenceable(8) %4)
  br i1 %5, label %6, label %7

6:                                                ; preds = %1
  store i64 0, ptr %2, align 8
  br label %26

7:                                                ; preds = %1
  %8 = call noundef zeroext i1 @_ZNK4base13time_internal8TimeBaseINS_4TimeEE6is_maxEv(ptr noundef nonnull align 8 dereferenceable(8) %4)
  br i1 %8, label %9, label %11

9:                                                ; preds = %7
  %10 = call noundef i64 @_ZNSt14numeric_limitsIlE3maxEv() #12
  store i64 %10, ptr %2, align 8
  br label %26

11:                                               ; preds = %7
  %12 = call noundef i64 @_ZNSt14numeric_limitsIlE3maxEv() #12
  %13 = load i64, ptr @_ZN4base4Time26kTimeTToMicrosecondsOffsetE, align 8, !tbaa !8
  %14 = sub nsw i64 %12, %13
  %15 = getelementptr inbounds nuw %"class.base::time_internal::TimeBase", ptr %4, i32 0, i32 0
  %16 = load i64, ptr %15, align 8, !tbaa !29
  %17 = icmp sle i64 %14, %16
  br i1 %17, label %18, label %20

18:                                               ; preds = %11
  %19 = call noundef i64 @_ZNSt14numeric_limitsIlE3maxEv() #12
  store i64 %19, ptr %2, align 8
  br label %26

20:                                               ; preds = %11
  %21 = getelementptr inbounds nuw %"class.base::time_internal::TimeBase", ptr %4, i32 0, i32 0
  %22 = load i64, ptr %21, align 8, !tbaa !29
  %23 = load i64, ptr @_ZN4base4Time26kTimeTToMicrosecondsOffsetE, align 8, !tbaa !8
  %24 = sub nsw i64 %22, %23
  %25 = sdiv i64 %24, 1000000
  store i64 %25, ptr %2, align 8
  br label %26

26:                                               ; preds = %20, %18, %9, %6
  %27 = load i64, ptr %2, align 8
  ret i64 %27
}