; Function Attrs: mustprogress nofree norecurse nosync nounwind willreturn memory(argmem: read) uwtable
define noundef range(i64 -9223372036854, -9223372036854775808) i64 @_ZNK4base4Time7ToTimeTEv(ptr noundef nonnull readonly align 8 captures(none) dereferenceable(8) %0) local_unnamed_addr #1 align 2 {
  %2 = load i64, ptr %0, align 8, !tbaa !9
  switch i64 %2, label %3 [
    i64 0, label %.fold.split
    i64 9223372036854775807, label %.fold.split
  ]

3:                                                ; preds = %1
  %4 = load i64, ptr @_ZN4base4Time26kTimeTToMicrosecondsOffsetE, align 8, !tbaa !8
  %5 = sub nsw i64 9223372036854775807, %4
  %.not = icmp sgt i64 %5, %2
  br i1 %.not, label %6, label %.fold.split

6:                                                ; preds = %3
  %7 = sub nsw i64 %2, %4
  %8 = sdiv i64 %7, 1000000
  br label %.fold.split

.fold.split:                                      ; preds = %1, %1, %3, %6
  %.0 = phi i64 [ %8, %6 ], [ %2, %1 ], [ 9223372036854775807, %3 ], [ %2, %1 ]
  ret i64 %.0
}